; Function Attrs: null_pointer_is_valid sspstrong uwtable
define internal i32 @dissect_nbap_HSDSCH_MACdFlow_Specific_InfoItem(ptr noundef %0, i32 noundef %1, ptr noundef %2, ptr noundef %3, i32 noundef %4) #0 {
  %6 = alloca i32, align 4
  call void @llvm.lifetime.start.p0(i64 4, ptr nonnull %6) #9
  %7 = getelementptr inbounds nuw i8, ptr %2, i64 16
  %8 = load ptr, ptr %7, align 8
  %9 = getelementptr inbounds nuw i8, ptr %8, i64 408
  %10 = load ptr, ptr %9, align 8
  %11 = load i32, ptr @proto_nbap, align 4
  %12 = tail call ptr @p_get_proto_data(ptr noundef %10, ptr noundef %8, i32 noundef %11, i32 noundef 0)
  %13 = icmp eq ptr %12, null
  br i1 %13, label %14, label %nbap_get_private_data.exit

14:                                               ; preds = %5
  %15 = load ptr, ptr %9, align 8
  %16 = tail call noalias dereferenceable_or_null(268056) ptr @wmem_alloc0(ptr noundef %15, i64 noundef 268056) #10
  %17 = load ptr, ptr %9, align 8
  %18 = load i32, ptr @proto_nbap, align 4
  tail call void @p_add_proto_data(ptr noundef %17, ptr noundef %8, i32 noundef %18, i32 noundef 0, ptr noundef %16)
  %19 = getelementptr inbounds nuw i8, ptr %16, i64 68
  store i32 3, ptr %19, align 4
  %20 = getelementptr inbounds nuw i8, ptr %16, i64 108
  store i8 0, ptr %20, align 4
  %21 = getelementptr inbounds nuw i8, ptr %16, i64 12
  store i32 65535, ptr %21, align 4
  %22 = getelementptr inbounds nuw i8, ptr %16, i64 40
  store i32 65535, ptr %22, align 8
  %23 = getelementptr inbounds nuw i8, ptr %16, i64 109
  store i8 2, ptr %23, align 1
  %24 = getelementptr i8, ptr %16, i64 267508
  br label %25

25:                                               ; preds = %25, %14
  %indvars.iv.i = phi i64 [ 0, %14 ], [ %indvars.iv.next.i, %25 ]
  %.idx.i = mul nuw nsw i64 %indvars.iv.i, 40
  %26 = getelementptr i8, ptr %24, i64 %.idx.i
  store i8 1, ptr %26, align 4
  %indvars.iv.next.i = add nuw nsw i64 %indvars.iv.i, 1
  %exitcond.not.i = icmp eq i64 %indvars.iv.next.i, 8
  br i1 %exitcond.not.i, label %nbap_get_private_data.exit, label %25, !llvm.loop !9

nbap_get_private_data.exit:                       ; preds = %25, %5
  %.0.i = phi ptr [ %12, %5 ], [ %16, %25 ]
  store i32 0, ptr %.0.i, align 8
  %27 = getelementptr inbounds nuw i8, ptr %.0.i, i64 4
  store i16 0, ptr %27, align 4
  %28 = getelementptr inbounds nuw i8, ptr %.0.i, i64 16
  %29 = load i32, ptr %28, align 8
  %30 = add i32 %29, 1
  store i32 %30, ptr %28, align 8
  %31 = load i32, ptr @ett_nbap_HSDSCH_MACdFlow_Specific_InfoItem, align 4
  %32 = tail call i32 @dissect_per_sequence(ptr noundef %0, i32 noundef %1, ptr noundef %2, ptr noundef %3, i32 noundef %4, i32 noundef %31, ptr noundef nonnull @HSDSCH_MACdFlow_Specific_InfoItem_sequence)
  %33 = load i32, ptr %.0.i, align 8
  store i32 %33, ptr %6, align 4
  %34 = load i16, ptr %27, align 4
  %35 = load ptr, ptr %7, align 8
  %36 = getelementptr inbounds nuw i8, ptr %35, i64 80
  %37 = load ptr, ptr %36, align 8
  %38 = getelementptr inbounds nuw i8, ptr %37, i64 57
  %39 = load i16, ptr %38, align 1
  %40 = and i16 %39, 8
  %41 = icmp ne i16 %40, 0
  %42 = icmp eq i32 %33, 0
  %or.cond = select i1 %41, i1 true, i1 %42
  %43 = icmp eq i16 %34, 0
  %or.cond4 = select i1 %or.cond, i1 true, i1 %43
  br i1 %or.cond4, label %56, label %copy_address_wmem.exit

copy_address_wmem.exit:                           ; preds = %nbap_get_private_data.exit
  %44 = getelementptr inbounds nuw i8, ptr %.0.i, i64 267472
  %45 = getelementptr inbounds nuw i8, ptr %.0.i, i64 68
  %46 = load i32, ptr %45, align 4
  %47 = getelementptr inbounds nuw i8, ptr %35, i64 408
  %48 = load ptr, ptr %47, align 8
  %49 = zext i32 %46 to i64
  %50 = getelementptr %struct.nbap_hsdsch_channel_info_t, ptr %44, i64 %49
  tail call void @llvm.memset.p0.i64(ptr noundef align 8 dereferenceable(24) %50, i8 0, i64 24, i1 false)
  store i32 2, ptr %50, align 8
  %51 = call dereferenceable_or_null(4) ptr @wmem_memdup(ptr noundef %48, ptr noundef nonnull %6, i64 noundef 4) #11
  %52 = getelementptr inbounds nuw i8, ptr %50, i64 16
  store ptr %51, ptr %52, align 8
  %53 = getelementptr inbounds nuw i8, ptr %50, i64 8
  store ptr %51, ptr %53, align 8
  %54 = getelementptr inbounds nuw i8, ptr %50, i64 4
  store i32 4, ptr %54, align 4
  %55 = getelementptr inbounds nuw i8, ptr %50, i64 24
  store i16 %34, ptr %55, align 8
  br label %56

56:                                               ; preds = %nbap_get_private_data.exit, %copy_address_wmem.exit
  call void @llvm.lifetime.end.p0(i64 4, ptr nonnull %6) #9
  ret i32 %32
}